target datalayout = "e-m:e-p270:32:32-p271:32:32-p272:64:64-i64:64-i128:128-f80:128-n8:16:32:64-S128"
target triple = "x86_64-pc-linux-gnu"

%struct._packet_info = type { ptr, ptr, i32, i32, %struct.nstime_t, %struct.nstime_t, %struct.nstime_t, i8, ptr, ptr, ptr, ptr, %struct._address, %struct._address, %struct._address, %struct._address, %struct._address, %struct._address, i32, ptr, i8, [3 x i8], %struct.anon, i32, i32, i32, i32, ptr, i8, ptr, ptr, i16, i16, i32, i32, i16, i32, i32, ptr, ptr, ptr, i8, i8, i16, i16, i16, i32, i16, i16, ptr, ptr, ptr, ptr, ptr, i32, i32 }
%struct.nstime_t = type { i64, i32 }
%struct._address = type { i32, i32, ptr, ptr }
%struct.anon = type { i8, [3 x i8] }

; Function Attrs: null_pointer_is_valid sspstrong uwtable
define internal void @dissect_gtpv2_apco(ptr noundef %0, ptr noundef %1, ptr noundef %2, ptr noundef %3, i16 noundef zeroext %4, i8 noundef zeroext %5, i8 noundef zeroext %6, ptr noundef %7) #1 {
  %9 = alloca ptr, align 8
  %10 = alloca ptr, align 8
  %11 = alloca ptr, align 8
  %12 = alloca ptr, align 8
  %13 = alloca i16, align 2
  %14 = alloca i8, align 1
  %15 = alloca i8, align 1
  %16 = alloca ptr, align 8
  store ptr %0, ptr %9, align 8
  store ptr %1, ptr %10, align 8
  store ptr %2, ptr %11, align 8
  store ptr %3, ptr %12, align 8
  store i16 %4, ptr %13, align 2
  store i8 %5, ptr %14, align 1
  store i8 %6, ptr %15, align 1
  store ptr %7, ptr %16, align 8
  %17 = load i8, ptr %14, align 1
  %18 = zext i8 %17 to i32
  switch i32 %18, label %25 [
    i32 32, label %19
    i32 36, label %19
    i32 68, label %19
    i32 96, label %19
    i32 98, label %19
    i32 100, label %19
    i32 33, label %22
    i32 35, label %22
    i32 37, label %22
    i32 95, label %22
    i32 97, label %22
    i32 99, label %22
  ]

19:                                               ; preds = %8, %8, %8, %8, %8, %8
  %20 = load ptr, ptr %10, align 8
  %21 = getelementptr inbounds nuw %struct._packet_info, ptr %20, i32 0, i32 46
  store i32 0, ptr %21, align 8
  br label %26

22:                                               ; preds = %8, %8, %8, %8, %8, %8
  %23 = load ptr, ptr %10, align 8
  %24 = getelementptr inbounds nuw %struct._packet_info, ptr %23, i32 0, i32 46
  store i32 1, ptr %24, align 8
  br label %26

25:                                               ; preds = %8
  br label %26

26:                                               ; preds = %25, %22, %19
  %27 = load ptr, ptr %9, align 8
  %28 = load ptr, ptr %11, align 8
  %29 = load ptr, ptr %10, align 8
  %30 = load i16, ptr %13, align 2
  %31 = zext i16 %30 to i32
  %32 = call zeroext i16 @de_sm_pco(ptr noundef %27, ptr noundef %28, ptr noundef %29, i32 noundef 0, i32 noundef %31, ptr noundef null, i32 noundef 0)
  ret void
}