; Function Attrs: null_pointer_is_valid sspstrong uwtable
define internal void @dissect_gtpv2_apco(ptr noundef %0, ptr noundef %1, ptr noundef %2, ptr readnone captures(none) %3, i16 noundef zeroext %4, i8 noundef zeroext %5, i8 zeroext %6, ptr readnone captures(none) %7) #1 {
  switch i8 %5, label %11 [
    i8 32, label %.sink.split
    i8 36, label %.sink.split
    i8 68, label %.sink.split
    i8 96, label %.sink.split
    i8 98, label %.sink.split
    i8 100, label %.sink.split
    i8 33, label %9
    i8 35, label %9
    i8 37, label %9
    i8 95, label %9
    i8 97, label %9
    i8 99, label %9
  ]

9:                                                ; preds = %8, %8, %8, %8, %8, %8
  br label %.sink.split

.sink.split:                                      ; preds = %8, %8, %8, %8, %8, %8, %9
  %.sink = phi i32 [ 1, %9 ], [ 0, %8 ], [ 0, %8 ], [ 0, %8 ], [ 0, %8 ], [ 0, %8 ], [ 0, %8 ]
  %10 = getelementptr inbounds nuw i8, ptr %1, i64 384
  store i32 %.sink, ptr %10, align 8
  br label %11

11:                                               ; preds = %.sink.split, %8
  %12 = zext i16 %4 to i32
  %13 = tail call zeroext i16 @de_sm_pco(ptr noundef %0, ptr noundef %2, ptr noundef %1, i32 noundef 0, i32 noundef %12, ptr noundef null, i32 noundef 0)
  ret void
}